; Function Attrs: mustprogress nounwind uwtable
define void @_ZN3net12SpdyAltSvcIRD2Ev(ptr noundef nonnull align 8 captures(address) dereferenceable(72) initializes((0, 8)) %0) unnamed_addr #8 align 2 personality ptr @__gxx_personality_v0 {
  store ptr getelementptr inbounds nuw inrange(-16, 24) (i8, ptr @_ZTVN3net12SpdyAltSvcIRE, i64 16), ptr %0, align 8, !tbaa !20
  %2 = getelementptr inbounds nuw i8, ptr %0, i64 48
  %3 = load ptr, ptr %2, align 8, !tbaa !66
  %4 = getelementptr inbounds nuw i8, ptr %0, i64 56
  %5 = load ptr, ptr %4, align 8, !tbaa !69
  %.not4.i.i.i.i = icmp eq ptr %3, %5
  br i1 %.not4.i.i.i.i, label %_ZSt8_DestroyIPN3net20SpdyAltSvcWireFormat18AlternativeServiceES2_EvT_S4_RSaIT0_E.exit.i, label %.lr.ph.i.i.i.i

.lr.ph.i.i.i.i:                                   ; preds = %1, %.lr.ph.i.i.i.i
  %.05.i.i.i.i = phi ptr [ %6, %.lr.ph.i.i.i.i ], [ %3, %1 ]
  tail call void @_ZN3net20SpdyAltSvcWireFormat18AlternativeServiceD1Ev(ptr noundef nonnull align 8 dereferenceable(96) %.05.i.i.i.i) #22
  %6 = getelementptr inbounds nuw i8, ptr %.05.i.i.i.i, i64 96
  %.not.i.i.i.i = icmp eq ptr %6, %5
  br i1 %.not.i.i.i.i, label %_ZSt8_DestroyIPN3net20SpdyAltSvcWireFormat18AlternativeServiceES2_EvT_S4_RSaIT0_E.exitthread-pre-split.i, label %.lr.ph.i.i.i.i, !llvm.loop !70

_ZSt8_DestroyIPN3net20SpdyAltSvcWireFormat18AlternativeServiceES2_EvT_S4_RSaIT0_E.exitthread-pre-split.i: ; preds = %.lr.ph.i.i.i.i
  %.pr.i = load ptr, ptr %2, align 8, !tbaa !66
  br label %_ZSt8_DestroyIPN3net20SpdyAltSvcWireFormat18AlternativeServiceES2_EvT_S4_RSaIT0_E.exit.i

_ZSt8_DestroyIPN3net20SpdyAltSvcWireFormat18AlternativeServiceES2_EvT_S4_RSaIT0_E.exit.i: ; preds = %_ZSt8_DestroyIPN3net20SpdyAltSvcWireFormat18AlternativeServiceES2_EvT_S4_RSaIT0_E.exitthread-pre-split.i, %1
  %7 = phi ptr [ %.pr.i, %_ZSt8_DestroyIPN3net20SpdyAltSvcWireFormat18AlternativeServiceES2_EvT_S4_RSaIT0_E.exitthread-pre-split.i ], [ %3, %1 ]
  %.not.i.i.i = icmp eq ptr %7, null
  br i1 %.not.i.i.i, label %_ZNSt6vectorIN3net20SpdyAltSvcWireFormat18AlternativeServiceESaIS2_EED2Ev.exit, label %8

8:                                                ; preds = %_ZSt8_DestroyIPN3net20SpdyAltSvcWireFormat18AlternativeServiceES2_EvT_S4_RSaIT0_E.exit.i
  tail call void @_ZdlPv(ptr noundef nonnull %7) #26
  br label %_ZNSt6vectorIN3net20SpdyAltSvcWireFormat18AlternativeServiceESaIS2_EED2Ev.exit

_ZNSt6vectorIN3net20SpdyAltSvcWireFormat18AlternativeServiceESaIS2_EED2Ev.exit: ; preds = %_ZSt8_DestroyIPN3net20SpdyAltSvcWireFormat18AlternativeServiceES2_EvT_S4_RSaIT0_E.exit.i, %8
  %9 = getelementptr inbounds nuw i8, ptr %0, i64 16
  %10 = load ptr, ptr %9, align 8, !tbaa !33
  %11 = getelementptr inbounds nuw i8, ptr %0, i64 32
  %12 = icmp eq ptr %10, %11
  br i1 %12, label %_ZNKSt7__cxx1112basic_stringIcSt11char_traitsIcESaIcEE11_M_is_localEv.exit.thread.i.i, label %_ZNKSt7__cxx1112basic_stringIcSt11char_traitsIcESaIcEE11_M_is_localEv.exit.i.i

_ZNKSt7__cxx1112basic_stringIcSt11char_traitsIcESaIcEE11_M_is_localEv.exit.thread.i.i: ; preds = %_ZNSt6vectorIN3net20SpdyAltSvcWireFormat18AlternativeServiceESaIS2_EED2Ev.exit
  %13 = getelementptr inbounds nuw i8, ptr %0, i64 24
  %14 = load i64, ptr %13, align 8, !tbaa !9
  %15 = icmp ult i64 %14, 16
  tail call void @llvm.assume(i1 %15)
  br label %_ZNSt7__cxx1112basic_stringIcSt11char_traitsIcESaIcEED2Ev.exit

_ZNKSt7__cxx1112basic_stringIcSt11char_traitsIcESaIcEE11_M_is_localEv.exit.i.i: ; preds = %_ZNSt6vectorIN3net20SpdyAltSvcWireFormat18AlternativeServiceESaIS2_EED2Ev.exit
  tail call void @_ZdlPv(ptr noundef %10) #26
  br label %_ZNSt7__cxx1112basic_stringIcSt11char_traitsIcESaIcEED2Ev.exit

_ZNSt7__cxx1112basic_stringIcSt11char_traitsIcESaIcEED2Ev.exit: ; preds = %_ZNKSt7__cxx1112basic_stringIcSt11char_traitsIcESaIcEE11_M_is_localEv.exit.thread.i.i, %_ZNKSt7__cxx1112basic_stringIcSt11char_traitsIcESaIcEE11_M_is_localEv.exit.i.i
  ret void
}